EXPORTS
	_ZN10CATCommand3SetERK6TDesC8 @ 1 NONAME
	_ZN10CATCommand4NewLERK6TDesC8 @ 2 NONAME
	_ZN10CATCommand4NewLEv @ 3 NONAME
	_ZN10CATCommand5NewLCERK6TDesC8 @ 4 NONAME
	_ZN10CATCommand5NewLCEv @ 5 NONAME
	_ZN7CATBase12InternalizeLER11RReadStream @ 6 NONAME
	_ZN7CATBaseD0Ev @ 7 NONAME
	_ZN7CATBaseD1Ev @ 8 NONAME
	_ZN7CATBaseD2Ev @ 9 NONAME
	_ZN8TATParam12InternalizeLER11RReadStream @ 10 NONAME
	_ZN8TATParam6SetIntEi @ 11 NONAME
	_ZN8TATParam8SetValueERK6TDesC812TATParamType @ 12 NONAME
	_ZN8TATParamC1ERK6TDesC812TATParamType @ 13 NONAME
	_ZN8TATParamC1Ei @ 14 NONAME
	_ZN8TATParamC1Ev @ 15 NONAME
	_ZN8TATParamC2ERK6TDesC812TATParamType @ 16 NONAME
	_ZN8TATParamC2Ei @ 17 NONAME
	_ZN8TATParamC2Ev @ 18 NONAME
	_ZN9CATResult3SetE5TATId7TATTypePK6RArrayI8TATParamE @ 19 NONAME
	_ZN9CATResult4NewLE5TATId7TATType8TATParam @ 20 NONAME
	_ZN9CATResult4NewLE5TATId7TATTypePK6RArrayI8TATParamE @ 21 NONAME
	_ZN9CATResult4NewLEv @ 22 NONAME
	_ZN9CATResult5NewLCE5TATId7TATType8TATParam @ 23 NONAME
	_ZN9CATResult5NewLCE5TATId7TATTypePK6RArrayI8TATParamE @ 24 NONAME
	_ZN9CATResult5NewLCEv @ 25 NONAME
	_ZNK7CATBase10ParametersEv @ 26 NONAME
	_ZNK7CATBase12ExternalizeLER12RWriteStream @ 27 NONAME
	_ZNK7CATBase2IdEv @ 28 NONAME
	_ZNK7CATBase3DesEv @ 29 NONAME
	_ZNK7CATBase4TypeEv @ 30 NONAME
	_ZNK7CATBase8ParamNumEv @ 31 NONAME
	_ZNK7CATBase9ParameterEiR8TATParam @ 32 NONAME
	_ZNK8TATParam12ExternalizeLER12RWriteStream @ 33 NONAME
	_ZNK8TATParam3DesEv @ 34 NONAME
	_ZNK8TATParam3IntERi @ 35 NONAME
	_ZNK8TATParam4TypeEv @ 36 NONAME
	_Z37ATObjArrayCleanupResetAndDestroyPushLR13RPointerArrayI9CATResultE @ 37 NONAME

