EXPORTS
	?Close@REAResponse@@QAEXXZ @ 1 NONAME ; void REAResponse::Close(void)
	?Close@RItem@@QAEXXZ @ 2 NONAME ; void RItem::Close(void)
	?Close@RRemConGetCapabilitiesResponse@@QAEXXZ @ 3 NONAME ; void RRemConGetCapabilitiesResponse::Close(void)
	?Close@RRemConGetElementAttributesRequest@@QAEXXZ @ 4 NONAME ; void RRemConGetElementAttributesRequest::Close(void)
	?Close@RRemConGetElementAttributesResponse@@QAEXXZ @ 5 NONAME ; void RRemConGetElementAttributesResponse::Close(void)
	?Close@RRemConGetFolderItemsRequest@@QAEXXZ @ 6 NONAME ; void RRemConGetFolderItemsRequest::Close(void)
	?Close@RRemConGetFolderItemsResponse@@QAEXXZ @ 7 NONAME ; void RRemConGetFolderItemsResponse::Close(void)
	?Close@RRemConGetItemAttributesRequest@@QAEXXZ @ 8 NONAME ; void RRemConGetItemAttributesRequest::Close(void)
	?Close@RRemConGetItemAttributesResponse@@QAEXXZ @ 9 NONAME ; void RRemConGetItemAttributesResponse::Close(void)
	?Close@RRemConGetPlayerApplicationTextResponse@@QAEXXZ @ 10 NONAME ; void RRemConGetPlayerApplicationTextResponse::Close(void)
	?Close@RRemConPlayerAttributeIdsAndValues@@QAEXXZ @ 11 NONAME ; void RRemConPlayerAttributeIdsAndValues::Close(void)
	?Close@RRemConPlayerListOfAttributes@@QAEXXZ @ 12 NONAME ; void RRemConPlayerListOfAttributes::Close(void)
	?Close@RRemConSearchRequest@@QAEXXZ @ 13 NONAME ; void RRemConSearchRequest::Close(void)
	?Close@RAvrcpGetFolderItemsResponse@@QAEXXZ @ 14 NONAME ; void RAvrcpGetFolderItemsResponse::Close(void)
	?WriteL@RRemConPlayerInformation32BitResponse@@UAEXAAVTDes8@@@Z @ 15 NONAME ; void RRemConPlayerInformation32BitResponse::WriteL(class TDes8 &)
	?WriteL@RRemConPlayerInformation8BitResponse@@UAEXAAVTDes8@@@Z @ 16 NONAME ; void RRemConPlayerInformation8BitResponse::WriteL(class TDes8 &)
	?WriteL@RRemConPlayerInformationGetPlayStatusResponse@@UAEXAAVTDes8@@@Z @ 17 NONAME ; void RRemConPlayerInformationGetPlayStatusResponse::WriteL(class TDes8 &)
	?ReadL@RRemConSearchRequest@@UAEXABVTDesC8@@@Z @ 18 NONAME ; void RRemConSearchRequest::ReadL(class TDesC8 const &)
	?ReadL@RRemConGetElementAttributesResponse@@UAEXABVTDesC8@@@Z @ 19 NONAME ; void RRemConGetElementAttributesResponse::ReadL(class TDesC8 const &)
	?Size@RRemConGetElementAttributesResponse@@QAEHXZ @ 20 NONAME ; int RRemConGetElementAttributesResponse::Size(void)
	?Size@RMediaPlayerItem@@QAEHXZ @ 21 NONAME ; int RMediaPlayerItem::Size(void)
	?Size@RRemConGetFolderItemsResponse@@QAEHXZ @ 22 NONAME ; int RRemConGetFolderItemsResponse::Size(void)
	?WriteL@RRemConGetCapabilitiesResponse@@UAEXAAVTDes8@@@Z @ 23 NONAME ; void RRemConGetCapabilitiesResponse::WriteL(class TDes8 &)
	?WriteL@RRemConGetFolderItemsResponse@@UAEXAAVTDes8@@@Z @ 24 NONAME ; void RRemConGetFolderItemsResponse::WriteL(class TDes8 &)
	?WriteL@RRemConGetElementAttributesResponse@@UAEXAAVTDes8@@@Z @ 25 NONAME ; void RRemConGetElementAttributesResponse::WriteL(class TDes8 &)
	?CopyAttributes@RRemConGetFolderItemsRequest@@QAEHAAV?$RArray@W4TMediaAttributeId@@@@@Z @ 26 NONAME ; int RRemConGetFolderItemsRequest::CopyAttributes(class RArray<enum TMediaAttributeId> &)
	?WriteL@RRemConPlayerListOfAttributes@@UAEXAAVTDes8@@@Z @ 27 NONAME ; void RRemConPlayerListOfAttributes::WriteL(class TDes8 &)
	?WriteL@RAvrcpIPCError@@UAEXAAVTDes8@@@Z @ 28 NONAME ; void RAvrcpIPCError::WriteL(class TDes8 &)
	?WriteL@RAvrcpGetFolderItemsRequest@@UAEXAAVTDes8@@@Z @ 29 NONAME ; void RAvrcpGetFolderItemsRequest::WriteL(class TDes8 &)
	?ReadL@RRemConPlayerAttributeIdsAndValues@@UAEXABVTDesC8@@@Z @ 30 NONAME ; void RRemConPlayerAttributeIdsAndValues::ReadL(class TDesC8 const &)
	?CopyItems@RRemConGetFolderItemsResponse@@QAEHABV?$TArray@VTRemConItem@@@@@Z @ 31 NONAME ; int RRemConGetFolderItemsResponse::CopyItems(class TArray<class TRemConItem> const &)
	?Remove@TRemConMessageQueue@@QAEXAAVCRemConQueuedMessage@@@Z @ 32 NONAME ; void TRemConMessageQueue::Remove(class CRemConQueuedMessage &)
	?Find@TRemConMessageQueue@@QAEPBVCRemConQueuedMessage@@VTUid@@H@Z @ 33 NONAME ; class CRemConQueuedMessage const * TRemConMessageQueue::Find(class TUid, int)
	?Close@RMediaPlayerItem@@QAEXXZ @ 34 NONAME ; void RMediaPlayerItem::Close(void)
	?NewL@CRemConQueuedMessage@@SAPAV1@VTUid@@ABVTDesC8@@H@Z @ 35 NONAME ; class CRemConQueuedMessage * CRemConQueuedMessage::NewL(class TUid, class TDesC8 const &, int)
	?WriteL@RRemConChangePathResponse@@UAEXAAVTDes8@@@Z @ 36 NONAME ; void RRemConChangePathResponse::WriteL(class TDes8 &)
	?ReadL@RAvrcpSetAddressedPlayerResponse@@UAEXABVTDesC8@@@Z @ 37 NONAME ; void RAvrcpSetAddressedPlayerResponse::ReadL(class TDesC8 const &)
	?WriteL@RRemConUidsChangedResponse@@UAEXAAVTDes8@@@Z @ 38 NONAME ; void RRemConUidsChangedResponse::WriteL(class TDes8 &)
	?WriteL@RRemConGetFolderItemsRequest@@UAEXAAVTDes8@@@Z @ 39 NONAME ; void RRemConGetFolderItemsRequest::WriteL(class TDes8 &)
	?WriteL@RAvrcpGetFolderItemsResponse@@UAEXAAVTDes8@@@Z @ 40 NONAME ; void RAvrcpGetFolderItemsResponse::WriteL(class TDes8 &)
	?ReadL@RAvrcpGetFolderItemsResponse@@UAEXABVTDesC8@@@Z @ 41 NONAME ; void RAvrcpGetFolderItemsResponse::ReadL(class TDesC8 const &)
	?ReadL@RAvrcpGetFolderItemsRequest@@UAEXABVTDesC8@@@Z @ 42 NONAME ; void RAvrcpGetFolderItemsRequest::ReadL(class TDesC8 const &)
	?ReadL@RRemConNowPlayingResponse@@UAEXABVTDesC8@@@Z @ 43 NONAME ; void RRemConNowPlayingResponse::ReadL(class TDesC8 const &)
	?IsEmpty@TRemConMessageQueue@@QAEHXZ @ 44 NONAME ; int TRemConMessageQueue::IsEmpty(void)
	?SymbianErrToStatus@RAvrcpIPC@@SAEH@Z @ 45 NONAME ; unsigned char RAvrcpIPC::SymbianErrToStatus(int)
	?First@TRemConMessageQueue@@QBEPAVCRemConQueuedMessage@@XZ @ 46 NONAME ; class CRemConQueuedMessage * TRemConMessageQueue::First(void) const
	?Reset@TRemConMessageQueue@@QAEXXZ @ 47 NONAME ; void TRemConMessageQueue::Reset(void)
	?WriteL@RAvrcpSetAddressedPlayerResponse@@UAEXAAVTDes8@@@Z @ 48 NONAME ; void RAvrcpSetAddressedPlayerResponse::WriteL(class TDes8 &)
	?ReadL@RRemConMediaErrorResponse@@UAEXABVTDesC8@@@Z @ 49 NONAME ; void RRemConMediaErrorResponse::ReadL(class TDesC8 const &)
	?SymbianErrorCheck@RAvrcpIPC@@SAHH@Z @ 50 NONAME ; int RAvrcpIPC::SymbianErrorCheck(int)
	?GetEventIdFromIPCOperationId@RAvrcpIPC@@SA?AW4TRegisterNotificationEvent@@H@Z @ 51 NONAME ; enum TRegisterNotificationEvent RAvrcpIPC::GetEventIdFromIPCOperationId(int)
	?WriteL@RRemConSetBrowsedPlayerRequest@@UAEXAAVTDes8@@@Z @ 52 NONAME ; void RRemConSetBrowsedPlayerRequest::WriteL(class TDes8 &)
	?WriteL@RRemConGetElementAttributesRequest@@UAEXAAVTDes8@@@Z @ 53 NONAME ; void RRemConGetElementAttributesRequest::WriteL(class TDes8 &)
	?AddLast@TRemConMessageQueue@@QAEXAAVCRemConQueuedMessage@@@Z @ 54 NONAME ; void TRemConMessageQueue::AddLast(class CRemConQueuedMessage &)
	?WriteL@RRemConGetPathResponse@@UAEXAAVTDes8@@@Z @ 55 NONAME ; void RRemConGetPathResponse::WriteL(class TDes8 &)
	?Size@RRemConGetItemAttributesResponse@@QAEHXZ @ 56 NONAME ; int RRemConGetItemAttributesResponse::Size(void)
	?ReadL@RRemConNowPlayingRequest@@UAEXABVTDesC8@@@Z @ 57 NONAME ; void RRemConNowPlayingRequest::ReadL(class TDesC8 const &)
	?ReadL@RAvrcpSetAddressedPlayerRequest@@UAEXABVTDesC8@@@Z @ 58 NONAME ; void RAvrcpSetAddressedPlayerRequest::ReadL(class TDesC8 const &)
	?WriteL@RRemConPlayerInformation64BitResponse@@UAEXAAVTDes8@@@Z @ 59 NONAME ; void RRemConPlayerInformation64BitResponse::WriteL(class TDes8 &)
	?WriteL@RRemConSearchResponse@@UAEXAAVTDes8@@@Z @ 60 NONAME ; void RRemConSearchResponse::WriteL(class TDes8 &)
	?ReadL@RRemConPlayerInformation64BitResponse@@UAEXABVTDesC8@@@Z @ 61 NONAME ; void RRemConPlayerInformation64BitResponse::ReadL(class TDesC8 const &)
	?ReadL@RRemConPlayerInformation8BitResponse@@UAEXABVTDesC8@@@Z @ 62 NONAME ; void RRemConPlayerInformation8BitResponse::ReadL(class TDesC8 const &)
	?WriteL@RRemConNowPlayingRequest@@UAEXAAVTDes8@@@Z @ 63 NONAME ; void RRemConNowPlayingRequest::WriteL(class TDes8 &)
	?Size@RRemConGetPlayerApplicationTextResponse@@QAEHXZ @ 64 NONAME ; int RRemConGetPlayerApplicationTextResponse::Size(void)
	?ReadL@RRemConPlayerListOfAttributes@@UAEXABVTDesC8@@@Z @ 65 NONAME ; void RRemConPlayerListOfAttributes::ReadL(class TDesC8 const &)
	?WriteL@RRemConPlayerAttributeIdsAndValues@@UAEXAAVTDes8@@@Z @ 66 NONAME ; void RRemConPlayerAttributeIdsAndValues::WriteL(class TDes8 &)
	?Size@RItem@@QAEHXZ @ 67 NONAME ; int RItem::Size(void)
	?WriteL@RRemConGetItemAttributesRequest@@UAEXAAVTDes8@@@Z @ 68 NONAME ; void RRemConGetItemAttributesRequest::WriteL(class TDes8 &)
	?WriteL@RRemConChangePathRequest@@UAEXAAVTDes8@@@Z @ 69 NONAME ; void RRemConChangePathRequest::WriteL(class TDes8 &)
	?WriteL@RRemConGetItemAttributesResponse@@UAEXAAVTDes8@@@Z @ 70 NONAME ; void RRemConGetItemAttributesResponse::WriteL(class TDes8 &)
	?Size@RRemConSearchRequest@@QAEHXZ @ 71 NONAME ; int RRemConSearchRequest::Size(void)
	?ReadL@RAvrcpAddressedPlayerNotificationResponse@@UAEXABVTDesC8@@@Z @ 72 NONAME ; void RAvrcpAddressedPlayerNotificationResponse::ReadL(class TDesC8 const &)
	?RequestNextItem@RRemConGetFolderItemsResponse@@QAEHAAHAAVRBuf8@@G@Z @ 73 NONAME ; int RRemConGetFolderItemsResponse::RequestNextItem(int &, class RBuf8 &, unsigned short)
	?ReadL@RRemConPlayerInformation32BitResponse@@UAEXABVTDesC8@@@Z @ 74 NONAME ; void RRemConPlayerInformation32BitResponse::ReadL(class TDesC8 const &)
	?Size@RRemConGetPathResponse@@QAEHXZ @ 75 NONAME ; int RRemConGetPathResponse::Size(void)
	??0TRemConMessageQueue@@QAE@XZ @ 76 NONAME ; TRemConMessageQueue::TRemConMessageQueue(void)
	?ReadL@RRemConGetItemAttributesRequest@@UAEXABVTDesC8@@@Z @ 77 NONAME ; void RRemConGetItemAttributesRequest::ReadL(class TDesC8 const &)
	?ReadL@RRemConGetItemAttributesResponse@@UAEXABVTDesC8@@@Z @ 78 NONAME ; void RRemConGetItemAttributesResponse::ReadL(class TDesC8 const &)
	?ReadL@RRemConGetPlayerApplicationTextResponse@@UAEXABVTDesC8@@@Z @ 79 NONAME ; void RRemConGetPlayerApplicationTextResponse::ReadL(class TDesC8 const &)
	?SetIPCOperationIdFromEventId@RAvrcpIPC@@SAHW4TRegisterNotificationEvent@@@Z @ 80 NONAME ; int RAvrcpIPC::SetIPCOperationIdFromEventId(enum TRegisterNotificationEvent)
	?Data@CRemConQueuedMessage@@QAEABVTDesC8@@XZ @ 81 NONAME ; class TDesC8 const & CRemConQueuedMessage::Data(void)
	?WriteL@RRemConNowPlayingResponse@@UAEXAAVTDes8@@@Z @ 82 NONAME ; void RRemConNowPlayingResponse::WriteL(class TDes8 &)
	?ReadL@RRemConPlayerInformationGetPlayStatusResponse@@UAEXABVTDesC8@@@Z @ 83 NONAME ; void RRemConPlayerInformationGetPlayStatusResponse::ReadL(class TDesC8 const &)
	?ReadL@RRemConGetFolderItemsRequest@@UAEXABVTDesC8@@@Z @ 84 NONAME ; void RRemConGetFolderItemsRequest::ReadL(class TDesC8 const &)
	?Close@RSettingWithCharset@@QAEXXZ @ 85 NONAME ; void RSettingWithCharset::Close(void)
	?ReadL@RAvrcpIPCError@@UAEXABVTDesC8@@@Z @ 86 NONAME ; void RAvrcpIPCError::ReadL(class TDesC8 const &)
	?WriteL@RRemConMediaErrorResponse@@UAEXAAVTDes8@@@Z @ 87 NONAME ; void RRemConMediaErrorResponse::WriteL(class TDes8 &)
	?ReadL@RRemConGetPathResponse@@UAEXABVTDesC8@@@Z @ 88 NONAME ; void RRemConGetPathResponse::ReadL(class TDesC8 const &)
	?ReadL@RRemConSearchResponse@@UAEXABVTDesC8@@@Z @ 89 NONAME ; void RRemConSearchResponse::ReadL(class TDesC8 const &)
	?ReadL@RRemConSetBrowsedPlayerRequest@@UAEXABVTDesC8@@@Z @ 90 NONAME ; void RRemConSetBrowsedPlayerRequest::ReadL(class TDesC8 const &)
	?ReadL@RRemConChangePathResponse@@UAEXABVTDesC8@@@Z @ 91 NONAME ; void RRemConChangePathResponse::ReadL(class TDesC8 const &)
	?ReadL@RRemConGetCapabilitiesResponse@@UAEXABVTDesC8@@@Z @ 92 NONAME ; void RRemConGetCapabilitiesResponse::ReadL(class TDesC8 const &)
	?ReadL@RRemConUidsChangedResponse@@UAEXABVTDesC8@@@Z @ 93 NONAME ; void RRemConUidsChangedResponse::ReadL(class TDesC8 const &)
	?GetPDUIdFromIPCOperationId@RAvrcpIPC@@SA?AW4TMetadataTransferPDU@@H@Z @ 94 NONAME ; enum TMetadataTransferPDU RAvrcpIPC::GetPDUIdFromIPCOperationId(int)
	?Size@RAvrcpGetFolderItemsResponse@@QAEHXZ @ 95 NONAME ; int RAvrcpGetFolderItemsResponse::Size(void)
	?ReadL@RRemConChangePathRequest@@UAEXABVTDesC8@@@Z @ 96 NONAME ; void RRemConChangePathRequest::ReadL(class TDesC8 const &)
	?ReadL@RRemConGetFolderItemsResponse@@UAEXABVTDesC8@@@Z @ 97 NONAME ; void RRemConGetFolderItemsResponse::ReadL(class TDesC8 const &)
	?Close@RRemConGetPathResponse@@QAEXXZ @ 98 NONAME ; void RRemConGetPathResponse::Close(void)
	?ReadL@RRemConGetElementAttributesRequest@@UAEXABVTDesC8@@@Z @ 99 NONAME ; void RRemConGetElementAttributesRequest::ReadL(class TDesC8 const &)
	??1CRemConQueuedMessage@@UAE@XZ @ 100 NONAME ; CRemConQueuedMessage::~CRemConQueuedMessage(void)
	?WriteL@RRemConSearchRequest@@UAEXAAVTDes8@@@Z @ 101 NONAME ; void RRemConSearchRequest::WriteL(class TDes8 &)
	?WriteL@RRemConGetPlayerApplicationTextResponse@@UAEXAAVTDes8@@@Z @ 102 NONAME ; void RRemConGetPlayerApplicationTextResponse::WriteL(class TDes8 &)
	?WriteL@RAvrcpAddressedPlayerNotificationResponse@@UAEXAAVTDes8@@@Z @ 103 NONAME ; void RAvrcpAddressedPlayerNotificationResponse::WriteL(class TDes8 &)
	?WriteL@RAvrcpSetAddressedPlayerRequest@@UAEXAAVTDes8@@@Z @ 104 NONAME ; void RAvrcpSetAddressedPlayerRequest::WriteL(class TDes8 &)
	?Close@RAvrcpGetFolderItemsRequest@@QAEXXZ @ 105 NONAME ; void RAvrcpGetFolderItemsRequest::Close(void)
	?ReadL@RRemConUidsChangedRequest@@UAEXABVTDesC8@@@Z @ 106 NONAME ; void RRemConUidsChangedRequest::ReadL(class TDesC8 const &)
	?WriteL@RRemConUidsChangedRequest@@UAEXAAVTDes8@@@Z @ 107 NONAME ; void RRemConUidsChangedRequest::WriteL(class TDes8 &)
	?WriteL@RAvrcpUidCounterNotificationResponse@@UAEXAAVTDes8@@@Z @ 108 NONAME ; void RAvrcpUidCounterNotificationResponse::WriteL(class TDes8 &)
	?ReadL@RAvrcpUidCounterNotificationResponse@@UAEXABVTDesC8@@@Z @ 109 NONAME ; void RAvrcpUidCounterNotificationResponse::ReadL(class TDesC8 const &)
	?WriteL@RRemConPlayerInformationGetPlayStatusUpdateRequest@@UAEXAAVTDes8@@@Z @ 110 NONAME ; void RRemConPlayerInformationGetPlayStatusUpdateRequest::WriteL(class TDes8 &)
	?ReadL@RRemConPlayerInformationGetPlayStatusUpdateResponse@@UAEXABVTDesC8@@@Z @ 111 NONAME ; void RRemConPlayerInformationGetPlayStatusUpdateResponse::ReadL(class TDesC8 const &)
	?ReadL@RRemConPlayerInformationGetPlayStatusUpdateRequest@@UAEXABVTDesC8@@@Z @ 112 NONAME ; void RRemConPlayerInformationGetPlayStatusUpdateRequest::ReadL(class TDesC8 const &)
	?WriteL@RRemConPlayerInformationGetPlayStatusUpdateResponse@@UAEXAAVTDes8@@@Z @ 113 NONAME ; void RRemConPlayerInformationGetPlayStatusUpdateResponse::WriteL(class TDes8 &)

