EXPORTS
	_ZN24TObexUtilsMessageHandler15SaveObjToInboxLEP14CObexBufObjectRK7TDesC164TUid @ 1 NONAME
	_ZN24TObexUtilsMessageHandler15SaveObjToInboxLERP14CObexBufObjectR5RFilel @ 2 NONAME
	_ZN24TObexUtilsMessageHandler16AddEntryToInboxLERlR4TBufILi256EE @ 3 NONAME
	_ZN24TObexUtilsMessageHandler16AddEntryToInboxLERlR4TBufILi256EEP6RArrayIlE @ 4 NONAME
	_ZN24TObexUtilsMessageHandler18CreateOutboxEntryLERK4TUidRKi @ 5 NONAME
	_ZN24TObexUtilsMessageHandler18DeleteOutboxEntryLERKl @ 6 NONAME
	_ZN24TObexUtilsMessageHandler19GetFileSystemStatusEv @ 7 NONAME
	_ZN24TObexUtilsMessageHandler19RemoveInboxEntriesLERP14CObexBufObjectl @ 8 NONAME
	_ZN24TObexUtilsMessageHandler20GetPubSubKeyIntValueE4TUidjRi @ 9 NONAME
	_ZN24TObexUtilsMessageHandler21GetCenRepKeyIntValueLE4TUidmRi @ 10 NONAME
	_ZN24TObexUtilsMessageHandler21RemoveTemporaryRFileLERK4TBufILi256EE @ 11 NONAME
	_ZN24TObexUtilsMessageHandler21SaveFileToFileSystemLERP14CObexBufObject4TUidRlR4TBufILi256EER5RFileRK7TDesC16 @ 12 NONAME
	_ZN24TObexUtilsMessageHandler22CreateInboxAttachmentLERP14CObexBufObject4TUidRlR5RFile @ 13 NONAME
	_ZN24TObexUtilsMessageHandler22CreateInboxAttachmentLERP14CObexBufObject4TUidRlR5RFileRK7TDesC16 @ 14 NONAME
	_ZN24TObexUtilsMessageHandler22GetMessageCentreDriveLEv @ 15 NONAME
	_ZN24TObexUtilsMessageHandler22GetMmcFileSystemStatusEv @ 16 NONAME
	_ZN24TObexUtilsMessageHandler22UpdateEntryAttachmentLER4TBufILi256EEP9CMsvEntry @ 17 NONAME
	_ZN24TObexUtilsMessageHandler24CreateDefaultMtmServiceLE4TUid @ 18 NONAME
	_ZN24TObexUtilsMessageHandler24GetCenRepKeyStringValueLE4TUidmR6TDes16 @ 19 NONAME
	_ZN24TObexUtilsMessageHandler28CreateReceiveBufferAndRFileLER5RFileRK7TDesC16R4TBufILi256EERP8CBufFlati @ 20 NONAME
	_ZN26CObexUtilsPropertyNotifier4NewLEP31MObexUtilsPropertyNotifyHandler24TMemoryPropertyCheckType @ 21 NONAME
	_ZN20CObexUtilsOpaqueData8IsStringEv @ 22 NONAME
	_ZN20CObexUtilsOpaqueData9GetNumberERj @ 23 NONAME
	_ZN20CObexUtilsOpaqueData9GetStringER5TBuf8ILi256EE @ 24 NONAME
	_ZN20CObexUtilsOpaqueDataC1ERK6TDesC8 @ 25 NONAME
	_ZN20CObexUtilsOpaqueDataC2ERK6TDesC8 @ 26 NONAME
	_ZN16CObexUtilsDialog14ShowErrorNoteLERK7TDesC16 @ 27 NONAME
	_ZN16CObexUtilsDialog16CancelWaitDialogEv @ 28 NONAME
	_ZN16CObexUtilsDialog17LaunchWaitDialogLERK7TDesC16 @ 29 NONAME
	_ZN16CObexUtilsDialog18LaunchQueryDialogLERK7TDesC16 @ 30 NONAME
	_ZN16CObexUtilsDialog19UpdateProgressNoteLEiiRK7TDesC16 @ 31 NONAME
	_ZN16CObexUtilsDialog20CancelProgressDialogEv @ 32 NONAME
	_ZN16CObexUtilsDialog20ShowInformationNoteLERK7TDesC16 @ 33 NONAME
	_ZN16CObexUtilsDialog21LaunchProgressDialogLEP26MObexUtilsProgressObserveriRK7TDesC16i @ 34 NONAME
	_ZN16CObexUtilsDialog21UpdateProgressDialogLEi @ 35 NONAME
	_ZN16CObexUtilsDialog4NewLEP24MObexUtilsDialogObserver @ 36 NONAME
	_ZN16CObexUtilsDialog5NewLCEP24MObexUtilsDialogObserver @ 37 NONAME
	_ZN16CObexUtilsDialogD0Ev @ 38 NONAME
	_ZN16CObexUtilsDialogD1Ev @ 39 NONAME
	_ZN16CObexUtilsDialogD2Ev @ 40 NONAME

