EXPORTS
	?GetCenRepKeyIntValueL@TObexUtilsMessageHandler@@SAHVTUid@@KAAH@Z @ 1 NONAME ; int TObexUtilsMessageHandler::GetCenRepKeyIntValueL(class TUid, unsigned long, int &)
	?SaveObjToInboxL@TObexUtilsMessageHandler@@SAXPAVCObexBufObject@@ABVTDesC16@@VTUid@@@Z @ 2 NONAME ; void TObexUtilsMessageHandler::SaveObjToInboxL(class CObexBufObject *, class TDesC16 const &, class TUid)
	?RemoveInboxEntriesL@TObexUtilsMessageHandler@@SAXAAPAVCObexBufObject@@J@Z @ 3 NONAME ; void TObexUtilsMessageHandler::RemoveInboxEntriesL(class CObexBufObject * &, long)
	?CreateReceiveBufferAndRFileL@TObexUtilsMessageHandler@@SAHAAVRFile@@ABVTDesC16@@AAV?$TBuf@$0BAA@@@AAPAVCBufFlat@@H@Z @ 4 NONAME ; int TObexUtilsMessageHandler::CreateReceiveBufferAndRFileL(class RFile &, class TDesC16 const &, class TBuf<256> &, class CBufFlat * &, int)
	?AddEntryToInboxL@TObexUtilsMessageHandler@@SAXAAJAAV?$TBuf@$0BAA@@@@Z @ 5 NONAME ; void TObexUtilsMessageHandler::AddEntryToInboxL(long &, class TBuf<256> &)
	?CreateDefaultMtmServiceL@TObexUtilsMessageHandler@@SAXVTUid@@@Z @ 6 NONAME ; void TObexUtilsMessageHandler::CreateDefaultMtmServiceL(class TUid)
	?GetCenRepKeyStringValueL@TObexUtilsMessageHandler@@SAHVTUid@@KAAVTDes16@@@Z @ 7 NONAME ; int TObexUtilsMessageHandler::GetCenRepKeyStringValueL(class TUid, unsigned long, class TDes16 &)
	?GetMmcFileSystemStatus@TObexUtilsMessageHandler@@SAHXZ @ 8 NONAME ; int TObexUtilsMessageHandler::GetMmcFileSystemStatus(void)
	?GetPubSubKeyIntValue@TObexUtilsMessageHandler@@SAHVTUid@@IAAH@Z @ 9 NONAME ; int TObexUtilsMessageHandler::GetPubSubKeyIntValue(class TUid, unsigned int, int &)
	?UpdateEntryAttachmentL@TObexUtilsMessageHandler@@SAXAAV?$TBuf@$0BAA@@@PAVCMsvEntry@@@Z @ 10 NONAME ; void TObexUtilsMessageHandler::UpdateEntryAttachmentL(class TBuf<256> &, class CMsvEntry *)
	?CreateInboxAttachmentL@TObexUtilsMessageHandler@@SAXAAPAVCObexBufObject@@VTUid@@AAJAAVRFile@@ABVTDesC16@@@Z @ 11 NONAME ; void TObexUtilsMessageHandler::CreateInboxAttachmentL(class CObexBufObject * &, class TUid, long &, class RFile &, class TDesC16 const &)
	?AddEntryToInboxL@TObexUtilsMessageHandler@@SAXAAJAAV?$TBuf@$0BAA@@@PAV?$RArray@J@@@Z @ 12 NONAME ; void TObexUtilsMessageHandler::AddEntryToInboxL(long &, class TBuf<256> &, class RArray<long> *)
	?RemoveTemporaryRFileL@TObexUtilsMessageHandler@@SAXABV?$TBuf@$0BAA@@@@Z @ 13 NONAME ; void TObexUtilsMessageHandler::RemoveTemporaryRFileL(class TBuf<256> const &)
	?GetFileSystemStatus@TObexUtilsMessageHandler@@SAHXZ @ 14 NONAME ; int TObexUtilsMessageHandler::GetFileSystemStatus(void)
	?DeleteOutboxEntryL@TObexUtilsMessageHandler@@SAXABJ@Z @ 15 NONAME ; void TObexUtilsMessageHandler::DeleteOutboxEntryL(long const &)
	?SaveFileToFileSystemL@TObexUtilsMessageHandler@@SAXAAPAVCObexBufObject@@VTUid@@AAJAAV?$TBuf@$0BAA@@@AAVRFile@@ABVTDesC16@@@Z @ 16 NONAME ; void TObexUtilsMessageHandler::SaveFileToFileSystemL(class CObexBufObject * &, class TUid, long &, class TBuf<256> &, class RFile &, class TDesC16 const &)
	?CreateOutboxEntryL@TObexUtilsMessageHandler@@SAJABVTUid@@ABH@Z @ 17 NONAME ; long TObexUtilsMessageHandler::CreateOutboxEntryL(class TUid const &, int const &)
	?CreateInboxAttachmentL@TObexUtilsMessageHandler@@SAXAAPAVCObexBufObject@@VTUid@@AAJAAVRFile@@@Z @ 18 NONAME ; void TObexUtilsMessageHandler::CreateInboxAttachmentL(class CObexBufObject * &, class TUid, long &, class RFile &)
	?GetMessageCentreDriveL@TObexUtilsMessageHandler@@SAHXZ @ 19 NONAME ; int TObexUtilsMessageHandler::GetMessageCentreDriveL(void)
	?SaveObjToInboxL@TObexUtilsMessageHandler@@SAXAAPAVCObexBufObject@@AAVRFile@@J@Z @ 20 NONAME ; void TObexUtilsMessageHandler::SaveObjToInboxL(class CObexBufObject * &, class RFile &, long)
	?NewL@CObexUtilsPropertyNotifier@@SAPAV1@PAVMObexUtilsPropertyNotifyHandler@@W4TMemoryPropertyCheckType@@@Z @ 21 NONAME ; class CObexUtilsPropertyNotifier * CObexUtilsPropertyNotifier::NewL(class MObexUtilsPropertyNotifyHandler *, enum TMemoryPropertyCheckType)
	?IsString@CObexUtilsOpaqueData@@QAEHXZ @ 22 NONAME ; int CObexUtilsOpaqueData::IsString(void)
	?GetNumber@CObexUtilsOpaqueData@@QAEHAAI@Z @ 23 NONAME ; int CObexUtilsOpaqueData::GetNumber(unsigned int &)
	??0CObexUtilsOpaqueData@@QAE@ABVTDesC8@@@Z @ 24 NONAME ; CObexUtilsOpaqueData::CObexUtilsOpaqueData(class TDesC8 const &)
	?GetString@CObexUtilsOpaqueData@@QAEHAAV?$TBuf8@$0BAA@@@@Z @ 25 NONAME ; int CObexUtilsOpaqueData::GetString(class TBuf8<256> &)
	?LaunchQueryDialogL@CObexUtilsDialog@@QAEXABVTDesC16@@@Z @ 26 NONAME ; void CObexUtilsDialog::LaunchQueryDialogL(class TDesC16 const &)
	?ShowErrorNoteL@CObexUtilsDialog@@QAEXABVTDesC16@@@Z @ 27 NONAME ; void CObexUtilsDialog::ShowErrorNoteL(class TDesC16 const &)
	?NewL@CObexUtilsDialog@@SAPAV1@PAVMObexUtilsDialogObserver@@@Z @ 28 NONAME ; class CObexUtilsDialog * CObexUtilsDialog::NewL(class MObexUtilsDialogObserver *)
	?UpdateProgressNoteL@CObexUtilsDialog@@QAEXHHABVTDesC16@@@Z @ 29 NONAME ; void CObexUtilsDialog::UpdateProgressNoteL(int, int, class TDesC16 const &)
	?CancelWaitDialog@CObexUtilsDialog@@QAEXXZ @ 30 NONAME ; void CObexUtilsDialog::CancelWaitDialog(void)
	?LaunchWaitDialogL@CObexUtilsDialog@@QAEXABVTDesC16@@@Z @ 31 NONAME ; void CObexUtilsDialog::LaunchWaitDialogL(class TDesC16 const &)
	?CancelProgressDialog@CObexUtilsDialog@@QAEXXZ @ 32 NONAME ; void CObexUtilsDialog::CancelProgressDialog(void)
	?LaunchProgressDialogL@CObexUtilsDialog@@QAEXPAVMObexUtilsProgressObserver@@HABVTDesC16@@H@Z @ 33 NONAME ; void CObexUtilsDialog::LaunchProgressDialogL(class MObexUtilsProgressObserver *, int, class TDesC16 const &, int)
	??1CObexUtilsDialog@@UAE@XZ @ 34 NONAME ; CObexUtilsDialog::~CObexUtilsDialog(void)
	?UpdateProgressDialogL@CObexUtilsDialog@@QAEXH@Z @ 35 NONAME ; void CObexUtilsDialog::UpdateProgressDialogL(int)
	?ShowInformationNoteL@CObexUtilsDialog@@QAEXABVTDesC16@@@Z @ 36 NONAME ; void CObexUtilsDialog::ShowInformationNoteL(class TDesC16 const &)
	?NewLC@CObexUtilsDialog@@SAPAV1@PAVMObexUtilsDialogObserver@@@Z @ 37 NONAME ; class CObexUtilsDialog * CObexUtilsDialog::NewLC(class MObexUtilsDialogObserver *)

