EXPORTS
	?emitDeviceSearchCompleted@BtDeviceModel@@AAEXH@Z @ 1 NONAME ; void BtDeviceModel::emitDeviceSearchCompleted(int)
	??1BtDeviceModel@@UAE@XZ @ 2 NONAME ; BtDeviceModel::~BtDeviceModel(void)
	?tr@BtDeviceModel@@SA?AVQString@@PBD0H@Z @ 3 NONAME ; class QString BtDeviceModel::tr(char const *, char const *, int)
	?searchDevice@BtDeviceModel@@QAE_NXZ @ 4 NONAME ; bool BtDeviceModel::searchDevice(void)
	?parent@BtSettingModel@@UBE?AVQModelIndex@@ABV2@@Z @ 5 NONAME ; class QModelIndex BtSettingModel::parent(class QModelIndex const &) const
	?settingDataChanged@BtSettingModel@@AAEXHPAX@Z @ 6 NONAME ; void BtSettingModel::settingDataChanged(int, void *)
	?setDeviceMajorFilter@BtuiModelSortFilter@@QAEXHW4FilterMode@1@@Z @ 7 NONAME ; void BtuiModelSortFilter::setDeviceMajorFilter(int, enum BtuiModelSortFilter::FilterMode)
	?metaObject@BtuiModelSortFilter@@UBEPBUQMetaObject@@XZ @ 8 NONAME ; struct QMetaObject const * BtuiModelSortFilter::metaObject(void) const
	?metaObject@BtSettingModel@@UBEPBUQMetaObject@@XZ @ 9 NONAME ; struct QMetaObject const * BtSettingModel::metaObject(void) const
	?hasFilter@BtuiModelSortFilter@@QAE_NHW4FilterMode@1@@Z @ 10 NONAME ; bool BtuiModelSortFilter::hasFilter(int, enum BtuiModelSortFilter::FilterMode)
	?itemData@BtSettingModel@@UBE?AV?$QMap@HVQVariant@@@@ABVQModelIndex@@@Z @ 11 NONAME ; class QMap<int, class QVariant> BtSettingModel::itemData(class QModelIndex const &) const
	?tr@BtSettingModel@@SA?AVQString@@PBD0@Z @ 12 NONAME ; class QString BtSettingModel::tr(char const *, char const *)
	??0BtDeviceModel@@QAE@PAVQObject@@@Z @ 13 NONAME ; BtDeviceModel::BtDeviceModel(class QObject *)
	?tr@BtDeviceModel@@SA?AVQString@@PBD0@Z @ 14 NONAME ; class QString BtDeviceModel::tr(char const *, char const *)
	?staticMetaObject@BtuiModelSortFilter@@2UQMetaObject@@B @ 15 NONAME ; struct QMetaObject const BtuiModelSortFilter::staticMetaObject
	?qt_metacast@BtuiModelSortFilter@@UAEPAXPBD@Z @ 16 NONAME ; void * BtuiModelSortFilter::qt_metacast(char const *)
	?qt_metacall@BtDeviceModel@@UAEHW4Call@QMetaObject@@HPAPAX@Z @ 17 NONAME ; int BtDeviceModel::qt_metacall(enum QMetaObject::Call, int, void * *)
	??_EBtDeviceModel@@UAE@I@Z @ 18 NONAME ; BtDeviceModel::~BtDeviceModel(unsigned int)
	?index@BtSettingModel@@UBE?AVQModelIndex@@HHABV2@@Z @ 19 NONAME ; class QModelIndex BtSettingModel::index(int, int, class QModelIndex const &) const
	?trUtf8@BtuiModelSortFilter@@SA?AVQString@@PBD0@Z @ 20 NONAME ; class QString BtuiModelSortFilter::trUtf8(char const *, char const *)
	?qt_metacall@BtSettingModel@@UAEHW4Call@QMetaObject@@HPAPAX@Z @ 21 NONAME ; int BtSettingModel::qt_metacall(enum QMetaObject::Call, int, void * *)
	?settingDataChanged@BtSettingModel@@AAEXHHPAX@Z @ 22 NONAME ; void BtSettingModel::settingDataChanged(int, int, void *)
	??0BtuiModelSortFilter@@QAE@PAVQObject@@@Z @ 23 NONAME ; BtuiModelSortFilter::BtuiModelSortFilter(class QObject *)
	?lessThan@BtuiModelSortFilter@@MBE_NABVQModelIndex@@0@Z @ 24 NONAME ; bool BtuiModelSortFilter::lessThan(class QModelIndex const &, class QModelIndex const &) const
	??1BtuiModelSortFilter@@UAE@XZ @ 25 NONAME ; BtuiModelSortFilter::~BtuiModelSortFilter(void)
	?deviceDataChanged@BtDeviceModel@@AAEXHHPAX@Z @ 26 NONAME ; void BtDeviceModel::deviceDataChanged(int, int, void *)
	?columnCount@BtDeviceModel@@UBEHABVQModelIndex@@@Z @ 27 NONAME ; int BtDeviceModel::columnCount(class QModelIndex const &) const
	?trUtf8@BtDeviceModel@@SA?AVQString@@PBD0H@Z @ 28 NONAME ; class QString BtDeviceModel::trUtf8(char const *, char const *, int)
	?deviceSearchCompleted@BtDeviceModel@@IAEXH@Z @ 29 NONAME ; void BtDeviceModel::deviceSearchCompleted(int)
	?cancelSearchDevice@BtDeviceModel@@QAEXXZ @ 30 NONAME ; void BtDeviceModel::cancelSearchDevice(void)
	??_EBtuiModelSortFilter@@UAE@I@Z @ 31 NONAME ; BtuiModelSortFilter::~BtuiModelSortFilter(unsigned int)
	??0BtSettingModel@@QAE@PAVQObject@@@Z @ 32 NONAME ; BtSettingModel::BtSettingModel(class QObject *)
	?deviceAcceptedByFilter@BtuiModelSortFilter@@IAEXH@Z @ 33 NONAME ; void BtuiModelSortFilter::deviceAcceptedByFilter(int)
	?index@BtDeviceModel@@UBE?AVQModelIndex@@HHABV2@@Z @ 34 NONAME ; class QModelIndex BtDeviceModel::index(int, int, class QModelIndex const &) const
	?qt_metacast@BtDeviceModel@@UAEPAXPBD@Z @ 35 NONAME ; void * BtDeviceModel::qt_metacast(char const *)
	?rowCount@BtSettingModel@@UBEHABVQModelIndex@@@Z @ 36 NONAME ; int BtSettingModel::rowCount(class QModelIndex const &) const
	??1BtSettingModel@@UAE@XZ @ 37 NONAME ; BtSettingModel::~BtSettingModel(void)
	??0BtSettingModel@@QAE@ABV0@PAVQObject@@@Z @ 38 NONAME ; BtSettingModel::BtSettingModel(class BtSettingModel const &, class QObject *)
	?endRemoveDevices@BtDeviceModel@@AAEXXZ @ 39 NONAME ; void BtDeviceModel::endRemoveDevices(void)
	?trUtf8@BtSettingModel@@SA?AVQString@@PBD0@Z @ 40 NONAME ; class QString BtSettingModel::trUtf8(char const *, char const *)
	??_EBtSettingModel@@UAE@I@Z @ 41 NONAME ; BtSettingModel::~BtSettingModel(unsigned int)
	?filterAcceptsRow@BtuiModelSortFilter@@MBE_NHABVQModelIndex@@@Z @ 42 NONAME ; bool BtuiModelSortFilter::filterAcceptsRow(int, class QModelIndex const &) const
	?clearDeviceMajorFilter@BtuiModelSortFilter@@QAEXHW4FilterMode@1@@Z @ 43 NONAME ; void BtuiModelSortFilter::clearDeviceMajorFilter(int, enum BtuiModelSortFilter::FilterMode)
	?tr@BtuiModelSortFilter@@SA?AVQString@@PBD0@Z @ 44 NONAME ; class QString BtuiModelSortFilter::tr(char const *, char const *)
	?addDeviceMajorFilter@BtuiModelSortFilter@@QAEXHW4FilterMode@1@@Z @ 45 NONAME ; void BtuiModelSortFilter::addDeviceMajorFilter(int, enum BtuiModelSortFilter::FilterMode)
	?qt_metacall@BtuiModelSortFilter@@UAEHW4Call@QMetaObject@@HPAPAX@Z @ 46 NONAME ; int BtuiModelSortFilter::qt_metacall(enum QMetaObject::Call, int, void * *)
	?rowCount@BtDeviceModel@@UBEHABVQModelIndex@@@Z @ 47 NONAME ; int BtDeviceModel::rowCount(class QModelIndex const &) const
	?itemData@BtDeviceModel@@UBE?AV?$QMap@HVQVariant@@@@ABVQModelIndex@@@Z @ 48 NONAME ; class QMap<int, class QVariant> BtDeviceModel::itemData(class QModelIndex const &) const
	?parent@BtDeviceModel@@UBE?AVQModelIndex@@ABV2@@Z @ 49 NONAME ; class QModelIndex BtDeviceModel::parent(class QModelIndex const &) const
	?staticMetaObject@BtDeviceModel@@2UQMetaObject@@B @ 50 NONAME ; struct QMetaObject const BtDeviceModel::staticMetaObject
	?getStaticMetaObject@BtSettingModel@@SAABUQMetaObject@@XZ @ 51 NONAME ; struct QMetaObject const & BtSettingModel::getStaticMetaObject(void)
	?qt_metacast@BtSettingModel@@UAEPAXPBD@Z @ 52 NONAME ; void * BtSettingModel::qt_metacast(char const *)
	??0BtDeviceModel@@QAE@ABV0@PAVQObject@@@Z @ 53 NONAME ; BtDeviceModel::BtDeviceModel(class BtDeviceModel const &, class QObject *)
	?trUtf8@BtuiModelSortFilter@@SA?AVQString@@PBD0H@Z @ 54 NONAME ; class QString BtuiModelSortFilter::trUtf8(char const *, char const *, int)
	?tr@BtuiModelSortFilter@@SA?AVQString@@PBD0H@Z @ 55 NONAME ; class QString BtuiModelSortFilter::tr(char const *, char const *, int)
	?beginInsertDevices@BtDeviceModel@@AAEXHHPAX@Z @ 56 NONAME ; void BtDeviceModel::beginInsertDevices(int, int, void *)
	?staticMetaObject@BtSettingModel@@2UQMetaObject@@B @ 57 NONAME ; struct QMetaObject const BtSettingModel::staticMetaObject
	?data@BtSettingModel@@UBE?AVQVariant@@ABVQModelIndex@@H@Z @ 58 NONAME ; class QVariant BtSettingModel::data(class QModelIndex const &, int) const
	?columnCount@BtSettingModel@@UBEHABVQModelIndex@@@Z @ 59 NONAME ; int BtSettingModel::columnCount(class QModelIndex const &) const
	?removeTransientDevices@BtDeviceModel@@QAEXXZ @ 60 NONAME ; void BtDeviceModel::removeTransientDevices(void)
	?trUtf8@BtDeviceModel@@SA?AVQString@@PBD0@Z @ 61 NONAME ; class QString BtDeviceModel::trUtf8(char const *, char const *)
	?metaObject@BtDeviceModel@@UBEPBUQMetaObject@@XZ @ 62 NONAME ; struct QMetaObject const * BtDeviceModel::metaObject(void) const
	?deviceDataChanged@BtDeviceModel@@AAEXHPAX@Z @ 63 NONAME ; void BtDeviceModel::deviceDataChanged(int, void *)
	?endInsertDevices@BtDeviceModel@@AAEXXZ @ 64 NONAME ; void BtDeviceModel::endInsertDevices(void)
	?trUtf8@BtSettingModel@@SA?AVQString@@PBD0H@Z @ 65 NONAME ; class QString BtSettingModel::trUtf8(char const *, char const *, int)
	?getStaticMetaObject@BtuiModelSortFilter@@SAABUQMetaObject@@XZ @ 66 NONAME ; struct QMetaObject const & BtuiModelSortFilter::getStaticMetaObject(void)
	?clearDeviceMajorFilters@BtuiModelSortFilter@@QAEXXZ @ 67 NONAME ; void BtuiModelSortFilter::clearDeviceMajorFilters(void)
	?tr@BtSettingModel@@SA?AVQString@@PBD0H@Z @ 68 NONAME ; class QString BtSettingModel::tr(char const *, char const *, int)
	?beginRemoveDevices@BtDeviceModel@@AAEXHHPAX@Z @ 69 NONAME ; void BtDeviceModel::beginRemoveDevices(int, int, void *)
	?getStaticMetaObject@BtDeviceModel@@SAABUQMetaObject@@XZ @ 70 NONAME ; struct QMetaObject const & BtDeviceModel::getStaticMetaObject(void)
	?data@BtDeviceModel@@UBE?AVQVariant@@ABVQModelIndex@@H@Z @ 71 NONAME ; class QVariant BtDeviceModel::data(class QModelIndex const &, int) const
	?connectModelSignals@BtDeviceModel@@AAEXXZ @ 72 NONAME ; void BtDeviceModel::connectModelSignals(void)
	?connectModelSignals@BtSettingModel@@AAEXXZ @ 73 NONAME ; void BtSettingModel::connectModelSignals(void)

