EXPORTS
	_ZN15CBtDevExtension10SetDeviceLEP9CBTDevice @ 1 NONAME
	_ZN15CBtDevExtension5CopyLEv @ 2 NONAME
	_ZN15CBtDevExtension5NewLCEP9CBTDevice21TDefaultDevNameOption @ 3 NONAME
	_ZN15CBtDevExtension5NewLCERK16TInquirySockAddrRK7TDesC1621TDefaultDevNameOption @ 4 NONAME
	_ZN15CBtDevExtensionD0Ev @ 5 NONAME
	_ZN15CBtDevExtensionD1Ev @ 6 NONAME
	_ZN15CBtDevExtensionD2Ev @ 7 NONAME
	_ZN15CBtSimpleActive12SetRequestIdEi @ 8 NONAME
	_ZN15CBtSimpleActive13RequestStatusEv @ 9 NONAME
	_ZN15CBtSimpleActive4NewLER23MBtSimpleActiveObserverii @ 10 NONAME
	_ZN15CBtSimpleActive8GoActiveEv @ 11 NONAME
	_ZN15CBtSimpleActive9RequestIdEv @ 12 NONAME
	_ZN15CBtSimpleActiveD0Ev @ 13 NONAME
	_ZN15CBtSimpleActiveD1Ev @ 14 NONAME
	_ZN15CBtSimpleActiveD2Ev @ 15 NONAME
	_ZN16CBtDevRepository12AddObserverLEP24MBtDevRepositoryObserver @ 16 NONAME
	_ZN16CBtDevRepository14RemoveObserverEP24MBtDevRepositoryObserver @ 17 NONAME
	_ZN16CBtDevRepository4NewLEv @ 18 NONAME
	_ZN16CBtDevRepositoryD0Ev @ 19 NONAME
	_ZN16CBtDevRepositoryD1Ev @ 20 NONAME
	_ZN16CBtDevRepositoryD2Ev @ 21 NONAME
	_ZN21CAdvanceDevDiscoverer11SetObserverER21MDevDiscoveryObserver @ 22 NONAME
	_ZN21CAdvanceDevDiscoverer15CancelDiscoveryEv @ 23 NONAME
	_ZN21CAdvanceDevDiscoverer15DiscoverDeviceLENS_19TDevDiscoveryFilterE19TBTMajorDeviceClass @ 24 NONAME
	_ZN21CAdvanceDevDiscoverer4NewLER16CBtDevRepositoryR21MDevDiscoveryObserver @ 25 NONAME
	_ZN21CAdvanceDevDiscovererD0Ev @ 26 NONAME
	_ZN21CAdvanceDevDiscovererD1Ev @ 27 NONAME
	_ZN21CAdvanceDevDiscovererD2Ev @ 28 NONAME
	_ZNK15CBtDevExtension17IsUserAwareBondedEv @ 29 NONAME
	_ZNK15CBtDevExtension4AddrEv @ 30 NONAME
	_ZNK15CBtDevExtension5AliasEv @ 31 NONAME
	_ZNK15CBtDevExtension6DeviceEv @ 32 NONAME
	_ZNK16CBtDevRepository10AllDevicesEv @ 33 NONAME
	_ZNK16CBtDevRepository13IsInitializedEv @ 34 NONAME
	_ZNK16CBtDevRepository6DeviceERK10TBTDevAddr @ 35 NONAME
	_ZNK15CBtDevExtension23ServiceConnectionStatusEv @ 36 NONAME
	_ZN16CBtDevRepository12ReInitializeEv @ 37 NONAME
	_ZN15CBtDevExtension17IsJustWorksBondedERK17TBTNamelessDevice @ 38 NONAME
	_ZN15CBtDevExtension17IsUserAwareBondedERK17TBTNamelessDevice @ 39 NONAME
	_ZN15CBtDevExtension8IsBondedERK17TBTNamelessDevice @ 40 NONAME
	_ZN15CBtDevExtension9IsHeadsetERK14TBTDeviceClass @ 41 NONAME
	_ZN15CBtDevExtension5NewLCERK10TBTDevAddrRK7TDesC1621TDefaultDevNameOption @ 42 NONAME

