EXPORTS
	?aboutToClose@BtAbstractDevSetting@@UAEXXZ @ 1 NONAME ; void BtAbstractDevSetting::aboutToClose(void)
	??0BtAbstractDevSetting@@QAE@ABVQString@@PAVQObject@@@Z @ 2 NONAME ; BtAbstractDevSetting::BtAbstractDevSetting(class QString const &, class QObject *)
	?tr@BtAbstractDevSetting@@SA?AVQString@@PBD0H@Z @ 3 NONAME ; class QString BtAbstractDevSetting::tr(char const *, char const *, int)
	?staticMetaObject@BtAbstractDevSetting@@2UQMetaObject@@B @ 4 NONAME ; struct QMetaObject const BtAbstractDevSetting::staticMetaObject
	?tr@BtAbstractDevSetting@@SA?AVQString@@PBD0@Z @ 5 NONAME ; class QString BtAbstractDevSetting::tr(char const *, char const *)
	?isSettingAvailable@BtAbstractDevSetting@@UAE_NXZ @ 6 NONAME ; bool BtAbstractDevSetting::isSettingAvailable(void)
	?trUtf8@BtAbstractDevSetting@@SA?AVQString@@PBD0@Z @ 7 NONAME ; class QString BtAbstractDevSetting::trUtf8(char const *, char const *)
	?getStaticMetaObject@BtAbstractDevSetting@@SAABUQMetaObject@@XZ @ 8 NONAME ; struct QMetaObject const & BtAbstractDevSetting::getStaticMetaObject(void)
	??_EBtDevSettingInterface@@UAE@I@Z @ 9 NONAME ; BtDevSettingInterface::~BtDevSettingInterface(unsigned int)
	?trUtf8@BtAbstractDevSetting@@SA?AVQString@@PBD0H@Z @ 10 NONAME ; class QString BtAbstractDevSetting::trUtf8(char const *, char const *, int)
	?aboutToBackground@BtAbstractDevSetting@@UAEXXZ @ 11 NONAME ; void BtAbstractDevSetting::aboutToBackground(void)
	??_EBtAbstractDevSetting@@UAE@I@Z @ 12 NONAME ; BtAbstractDevSetting::~BtAbstractDevSetting(unsigned int)
	?aboutToForeground@BtAbstractDevSetting@@UAEXXZ @ 13 NONAME ; void BtAbstractDevSetting::aboutToForeground(void)
	?getSettingWidget@BtAbstractDevSetting@@UAEPAVHbDataForm@@XZ @ 14 NONAME ; class HbDataForm * BtAbstractDevSetting::getSettingWidget(void)
	?metaObject@BtAbstractDevSetting@@UBEPBUQMetaObject@@XZ @ 15 NONAME ; struct QMetaObject const * BtAbstractDevSetting::metaObject(void) const
	?qt_metacast@BtAbstractDevSetting@@UAEPAXPBD@Z @ 16 NONAME ; void * BtAbstractDevSetting::qt_metacast(char const *)
	??1BtAbstractDevSetting@@UAE@XZ @ 17 NONAME ; BtAbstractDevSetting::~BtAbstractDevSetting(void)
	?qt_metacall@BtAbstractDevSetting@@UAEHW4Call@QMetaObject@@HPAPAX@Z @ 18 NONAME ; int BtAbstractDevSetting::qt_metacall(enum QMetaObject::Call, int, void * *)
	?getRemote@BtAbstractDevSetting@@QBEABVQString@@XZ @ 19 NONAME ; class QString const & BtAbstractDevSetting::getRemote(void) const
	?loadDevSettingInterfaces@BtDevSettingPluginLoader@@SA?AV?$QList@PAVBtDevSettingInterface@@@@XZ @ 20 NONAME ; class QList<class BtDevSettingInterface *> BtDevSettingPluginLoader::loadDevSettingInterfaces(void)
	?settingAvailabilityChanged@BtAbstractDevSetting@@IAEXPAV1@_N@Z @ 21 NONAME ; void BtAbstractDevSetting::settingAvailabilityChanged(class BtAbstractDevSetting *, bool)
	??1BtDevSettingInterface@@UAE@XZ @ 22 NONAME ; BtDevSettingInterface::~BtDevSettingInterface(void)

