EXPORTS
	_ZN13BtDeviceModel11qt_metacallEN11QMetaObject4CallEiPPv @ 1 NONAME
	_ZN13BtDeviceModel11qt_metacastEPKc @ 2 NONAME
	_ZN13BtDeviceModel12searchDeviceEv @ 3 NONAME
	_ZN13BtDeviceModel16endInsertDevicesEv @ 4 NONAME
	_ZN13BtDeviceModel16endRemoveDevicesEv @ 5 NONAME
	_ZN13BtDeviceModel16staticMetaObjectE @ 6 NONAME DATA 16
	_ZN13BtDeviceModel17deviceDataChangedEiPv @ 7 NONAME
	_ZN13BtDeviceModel17deviceDataChangedEiiPv @ 8 NONAME
	_ZN13BtDeviceModel18beginInsertDevicesEiiPv @ 9 NONAME
	_ZN13BtDeviceModel18beginRemoveDevicesEiiPv @ 10 NONAME
	_ZN13BtDeviceModel18cancelSearchDeviceEv @ 11 NONAME
	_ZN13BtDeviceModel19getStaticMetaObjectEv @ 12 NONAME
	_ZN13BtDeviceModel21deviceSearchCompletedEi @ 13 NONAME
	_ZN13BtDeviceModel22removeTransientDevicesEv @ 14 NONAME
	_ZN13BtDeviceModel25emitDeviceSearchCompletedEi @ 15 NONAME
	_ZN13BtDeviceModelC1EP7QObject @ 16 NONAME
	_ZN13BtDeviceModelC1ERKS_P7QObject @ 17 NONAME
	_ZN13BtDeviceModelC2EP7QObject @ 18 NONAME
	_ZN13BtDeviceModelC2ERKS_P7QObject @ 19 NONAME
	_ZN13BtDeviceModelD0Ev @ 20 NONAME
	_ZN13BtDeviceModelD1Ev @ 21 NONAME
	_ZN13BtDeviceModelD2Ev @ 22 NONAME
	_ZN14BtSettingModel11qt_metacallEN11QMetaObject4CallEiPPv @ 23 NONAME
	_ZN14BtSettingModel11qt_metacastEPKc @ 24 NONAME
	_ZN14BtSettingModel16staticMetaObjectE @ 25 NONAME DATA 16
	_ZN14BtSettingModel18settingDataChangedEiPv @ 26 NONAME
	_ZN14BtSettingModel18settingDataChangedEiiPv @ 27 NONAME
	_ZN14BtSettingModel19getStaticMetaObjectEv @ 28 NONAME
	_ZN14BtSettingModelC1EP7QObject @ 29 NONAME
	_ZN14BtSettingModelC1ERKS_P7QObject @ 30 NONAME
	_ZN14BtSettingModelC2EP7QObject @ 31 NONAME
	_ZN14BtSettingModelC2ERKS_P7QObject @ 32 NONAME
	_ZN14BtSettingModelD0Ev @ 33 NONAME
	_ZN14BtSettingModelD1Ev @ 34 NONAME
	_ZN14BtSettingModelD2Ev @ 35 NONAME
	_ZN19BtuiModelSortFilter11qt_metacallEN11QMetaObject4CallEiPPv @ 36 NONAME
	_ZN19BtuiModelSortFilter11qt_metacastEPKc @ 37 NONAME
	_ZN19BtuiModelSortFilter16staticMetaObjectE @ 38 NONAME DATA 16
	_ZN19BtuiModelSortFilter19getStaticMetaObjectEv @ 39 NONAME
	_ZN19BtuiModelSortFilter20addDeviceMajorFilterEiNS_10FilterModeE @ 40 NONAME
	_ZN19BtuiModelSortFilter20setDeviceMajorFilterEiNS_10FilterModeE @ 41 NONAME
	_ZN19BtuiModelSortFilter22clearDeviceMajorFilterEiNS_10FilterModeE @ 42 NONAME
	_ZN19BtuiModelSortFilter22deviceAcceptedByFilterEi @ 43 NONAME
	_ZN19BtuiModelSortFilter23clearDeviceMajorFiltersEv @ 44 NONAME
	_ZN19BtuiModelSortFilter9hasFilterEiNS_10FilterModeE @ 45 NONAME
	_ZN19BtuiModelSortFilterC1EP7QObject @ 46 NONAME
	_ZN19BtuiModelSortFilterC2EP7QObject @ 47 NONAME
	_ZN19BtuiModelSortFilterD0Ev @ 48 NONAME
	_ZN19BtuiModelSortFilterD1Ev @ 49 NONAME
	_ZN19BtuiModelSortFilterD2Ev @ 50 NONAME
	_ZNK13BtDeviceModel10metaObjectEv @ 51 NONAME
	_ZNK13BtDeviceModel11columnCountERK11QModelIndex @ 52 NONAME
	_ZNK13BtDeviceModel4dataERK11QModelIndexi @ 53 NONAME
	_ZNK13BtDeviceModel5indexEiiRK11QModelIndex @ 54 NONAME
	_ZNK13BtDeviceModel6parentERK11QModelIndex @ 55 NONAME
	_ZNK13BtDeviceModel8itemDataERK11QModelIndex @ 56 NONAME
	_ZNK13BtDeviceModel8rowCountERK11QModelIndex @ 57 NONAME
	_ZNK14BtSettingModel10metaObjectEv @ 58 NONAME
	_ZNK14BtSettingModel11columnCountERK11QModelIndex @ 59 NONAME
	_ZNK14BtSettingModel4dataERK11QModelIndexi @ 60 NONAME
	_ZNK14BtSettingModel5indexEiiRK11QModelIndex @ 61 NONAME
	_ZNK14BtSettingModel6parentERK11QModelIndex @ 62 NONAME
	_ZNK14BtSettingModel8itemDataERK11QModelIndex @ 63 NONAME
	_ZNK14BtSettingModel8rowCountERK11QModelIndex @ 64 NONAME
	_ZNK19BtuiModelSortFilter10metaObjectEv @ 65 NONAME
	_ZNK19BtuiModelSortFilter16filterAcceptsRowEiRK11QModelIndex @ 66 NONAME
	_ZNK19BtuiModelSortFilter8lessThanERK11QModelIndexS2_ @ 67 NONAME
	_ZTI13BtDeviceModel @ 68 NONAME
	_ZTI14BtSettingModel @ 69 NONAME
	_ZTI19BtuiModelSortFilter @ 70 NONAME
	_ZTV13BtDeviceModel @ 71 NONAME
	_ZTV14BtSettingModel @ 72 NONAME
	_ZTV19BtuiModelSortFilter @ 73 NONAME
	_ZN14BtSettingModel19connectModelSignalsEv @ 74 NONAME
	_ZN13BtDeviceModel19connectModelSignalsEv @ 75 NONAME

