EXPORTS
	_ZN11REAResponse5CloseEv @ 1 NONAME
	_ZN14RAvrcpIPCError5ReadLERK6TDesC8 @ 2 NONAME
	_ZN14RAvrcpIPCError6WriteLER5TDes8 @ 3 NONAME
	_ZN16RMediaPlayerItem4SizeEv @ 4 NONAME
	_ZN16RMediaPlayerItem5CloseEv @ 5 NONAME
	_ZN19RSettingWithCharset5CloseEv @ 6 NONAME
	_ZN19TRemConMessageQueue4FindE4TUidi @ 7 NONAME
	_ZN19TRemConMessageQueue5ResetEv @ 8 NONAME
	_ZN19TRemConMessageQueue6RemoveER20CRemConQueuedMessage @ 9 NONAME
	_ZN19TRemConMessageQueue7AddLastER20CRemConQueuedMessage @ 10 NONAME
	_ZN19TRemConMessageQueue7IsEmptyEv @ 11 NONAME
	_ZN19TRemConMessageQueueC1Ev @ 12 NONAME
	_ZN19TRemConMessageQueueC2Ev @ 13 NONAME
	_ZN20CRemConQueuedMessage4DataEv @ 14 NONAME
	_ZN20CRemConQueuedMessage4NewLE4TUidRK6TDesC8i @ 15 NONAME
	_ZN20CRemConQueuedMessageD0Ev @ 16 NONAME
	_ZN20CRemConQueuedMessageD1Ev @ 17 NONAME
	_ZN20CRemConQueuedMessageD2Ev @ 18 NONAME
	_ZN20RRemConSearchRequest4SizeEv @ 19 NONAME
	_ZN20RRemConSearchRequest5CloseEv @ 20 NONAME
	_ZN20RRemConSearchRequest5ReadLERK6TDesC8 @ 21 NONAME
	_ZN20RRemConSearchRequest6WriteLER5TDes8 @ 22 NONAME
	_ZN21RRemConSearchResponse5ReadLERK6TDesC8 @ 23 NONAME
	_ZN21RRemConSearchResponse6WriteLER5TDes8 @ 24 NONAME
	_ZN22RRemConGetPathResponse4SizeEv @ 25 NONAME
	_ZN22RRemConGetPathResponse5CloseEv @ 26 NONAME
	_ZN22RRemConGetPathResponse5ReadLERK6TDesC8 @ 27 NONAME
	_ZN22RRemConGetPathResponse6WriteLER5TDes8 @ 28 NONAME
	_ZN24RRemConChangePathRequest5ReadLERK6TDesC8 @ 29 NONAME
	_ZN24RRemConChangePathRequest6WriteLER5TDes8 @ 30 NONAME
	_ZN24RRemConNowPlayingRequest5ReadLERK6TDesC8 @ 31 NONAME
	_ZN24RRemConNowPlayingRequest6WriteLER5TDes8 @ 32 NONAME
	_ZN25RRemConChangePathResponse5ReadLERK6TDesC8 @ 33 NONAME
	_ZN25RRemConChangePathResponse6WriteLER5TDes8 @ 34 NONAME
	_ZN25RRemConMediaErrorResponse5ReadLERK6TDesC8 @ 35 NONAME
	_ZN25RRemConMediaErrorResponse6WriteLER5TDes8 @ 36 NONAME
	_ZN25RRemConNowPlayingResponse5ReadLERK6TDesC8 @ 37 NONAME
	_ZN25RRemConNowPlayingResponse6WriteLER5TDes8 @ 38 NONAME
	_ZN25RRemConUidsChangedRequest5ReadLERK6TDesC8 @ 39 NONAME
	_ZN25RRemConUidsChangedRequest6WriteLER5TDes8 @ 40 NONAME
	_ZN26RRemConUidsChangedResponse5ReadLERK6TDesC8 @ 41 NONAME
	_ZN26RRemConUidsChangedResponse6WriteLER5TDes8 @ 42 NONAME
	_ZN27RAvrcpGetFolderItemsRequest5CloseEv @ 43 NONAME
	_ZN27RAvrcpGetFolderItemsRequest5ReadLERK6TDesC8 @ 44 NONAME
	_ZN27RAvrcpGetFolderItemsRequest6WriteLER5TDes8 @ 45 NONAME
	_ZN28RAvrcpGetFolderItemsResponse4SizeEv @ 46 NONAME
	_ZN28RAvrcpGetFolderItemsResponse5CloseEv @ 47 NONAME
	_ZN28RAvrcpGetFolderItemsResponse5ReadLERK6TDesC8 @ 48 NONAME
	_ZN28RAvrcpGetFolderItemsResponse6WriteLER5TDes8 @ 49 NONAME
	_ZN28RRemConGetFolderItemsRequest14CopyAttributesER6RArrayI17TMediaAttributeIdE @ 50 NONAME
	_ZN28RRemConGetFolderItemsRequest5CloseEv @ 51 NONAME
	_ZN28RRemConGetFolderItemsRequest5ReadLERK6TDesC8 @ 52 NONAME
	_ZN28RRemConGetFolderItemsRequest6WriteLER5TDes8 @ 53 NONAME
	_ZN29RRemConGetFolderItemsResponse15RequestNextItemERiR5RBuf8t @ 54 NONAME
	_ZN29RRemConGetFolderItemsResponse4SizeEv @ 55 NONAME
	_ZN29RRemConGetFolderItemsResponse5CloseEv @ 56 NONAME
	_ZN29RRemConGetFolderItemsResponse5ReadLERK6TDesC8 @ 57 NONAME
	_ZN29RRemConGetFolderItemsResponse6WriteLER5TDes8 @ 58 NONAME
	_ZN29RRemConGetFolderItemsResponse9CopyItemsERK6TArrayI11TRemConItemE @ 59 NONAME
	_ZN29RRemConPlayerListOfAttributes5CloseEv @ 60 NONAME
	_ZN29RRemConPlayerListOfAttributes5ReadLERK6TDesC8 @ 61 NONAME
	_ZN29RRemConPlayerListOfAttributes6WriteLER5TDes8 @ 62 NONAME
	_ZN30RRemConGetCapabilitiesResponse5CloseEv @ 63 NONAME
	_ZN30RRemConGetCapabilitiesResponse5ReadLERK6TDesC8 @ 64 NONAME
	_ZN30RRemConGetCapabilitiesResponse6WriteLER5TDes8 @ 65 NONAME
	_ZN30RRemConSetBrowsedPlayerRequest5ReadLERK6TDesC8 @ 66 NONAME
	_ZN30RRemConSetBrowsedPlayerRequest6WriteLER5TDes8 @ 67 NONAME
	_ZN31RAvrcpSetAddressedPlayerRequest5ReadLERK6TDesC8 @ 68 NONAME
	_ZN31RAvrcpSetAddressedPlayerRequest6WriteLER5TDes8 @ 69 NONAME
	_ZN31RRemConGetItemAttributesRequest5CloseEv @ 70 NONAME
	_ZN31RRemConGetItemAttributesRequest5ReadLERK6TDesC8 @ 71 NONAME
	_ZN31RRemConGetItemAttributesRequest6WriteLER5TDes8 @ 72 NONAME
	_ZN32RAvrcpSetAddressedPlayerResponse5ReadLERK6TDesC8 @ 73 NONAME
	_ZN32RAvrcpSetAddressedPlayerResponse6WriteLER5TDes8 @ 74 NONAME
	_ZN32RRemConGetItemAttributesResponse4SizeEv @ 75 NONAME
	_ZN32RRemConGetItemAttributesResponse5CloseEv @ 76 NONAME
	_ZN32RRemConGetItemAttributesResponse5ReadLERK6TDesC8 @ 77 NONAME
	_ZN32RRemConGetItemAttributesResponse6WriteLER5TDes8 @ 78 NONAME
	_ZN34RRemConGetElementAttributesRequest5CloseEv @ 79 NONAME
	_ZN34RRemConGetElementAttributesRequest5ReadLERK6TDesC8 @ 80 NONAME
	_ZN34RRemConGetElementAttributesRequest6WriteLER5TDes8 @ 81 NONAME
	_ZN34RRemConPlayerAttributeIdsAndValues5CloseEv @ 82 NONAME
	_ZN34RRemConPlayerAttributeIdsAndValues5ReadLERK6TDesC8 @ 83 NONAME
	_ZN34RRemConPlayerAttributeIdsAndValues6WriteLER5TDes8 @ 84 NONAME
	_ZN35RRemConGetElementAttributesResponse4SizeEv @ 85 NONAME
	_ZN35RRemConGetElementAttributesResponse5CloseEv @ 86 NONAME
	_ZN35RRemConGetElementAttributesResponse5ReadLERK6TDesC8 @ 87 NONAME
	_ZN35RRemConGetElementAttributesResponse6WriteLER5TDes8 @ 88 NONAME
	_ZN36RRemConPlayerInformation8BitResponse5ReadLERK6TDesC8 @ 89 NONAME
	_ZN36RRemConPlayerInformation8BitResponse6WriteLER5TDes8 @ 90 NONAME
	_ZN37RRemConPlayerInformation32BitResponse5ReadLERK6TDesC8 @ 91 NONAME
	_ZN37RRemConPlayerInformation32BitResponse6WriteLER5TDes8 @ 92 NONAME
	_ZN37RRemConPlayerInformation64BitResponse5ReadLERK6TDesC8 @ 93 NONAME
	_ZN37RRemConPlayerInformation64BitResponse6WriteLER5TDes8 @ 94 NONAME
	_ZN39RRemConGetPlayerApplicationTextResponse4SizeEv @ 95 NONAME
	_ZN39RRemConGetPlayerApplicationTextResponse5CloseEv @ 96 NONAME
	_ZN39RRemConGetPlayerApplicationTextResponse5ReadLERK6TDesC8 @ 97 NONAME
	_ZN39RRemConGetPlayerApplicationTextResponse6WriteLER5TDes8 @ 98 NONAME
	_ZN41RAvrcpAddressedPlayerNotificationResponse5ReadLERK6TDesC8 @ 99 NONAME
	_ZN41RAvrcpAddressedPlayerNotificationResponse6WriteLER5TDes8 @ 100 NONAME
	_ZN45RRemConPlayerInformationGetPlayStatusResponse5ReadLERK6TDesC8 @ 101 NONAME
	_ZN45RRemConPlayerInformationGetPlayStatusResponse6WriteLER5TDes8 @ 102 NONAME
	_ZN5RItem4SizeEv @ 103 NONAME
	_ZN5RItem5CloseEv @ 104 NONAME
	_ZN9RAvrcpIPC17SymbianErrorCheckEi @ 105 NONAME
	_ZN9RAvrcpIPC18SymbianErrToStatusEi @ 106 NONAME
	_ZN9RAvrcpIPC26GetPDUIdFromIPCOperationIdEi @ 107 NONAME
	_ZN9RAvrcpIPC28GetEventIdFromIPCOperationIdEi @ 108 NONAME
	_ZN9RAvrcpIPC28SetIPCOperationIdFromEventIdE26TRegisterNotificationEvent @ 109 NONAME
	_ZNK19TRemConMessageQueue5FirstEv @ 110 NONAME
	_ZTI14RAvrcpIPCError @ 111 NONAME
	_ZTI20RRemConSearchRequest @ 112 NONAME
	_ZTI21RRemConSearchResponse @ 113 NONAME
	_ZTI22RRemConGetPathResponse @ 114 NONAME
	_ZTI24RRemConChangePathRequest @ 115 NONAME
	_ZTI24RRemConNowPlayingRequest @ 116 NONAME
	_ZTI25RRemConChangePathResponse @ 117 NONAME
	_ZTI25RRemConMediaErrorResponse @ 118 NONAME
	_ZTI25RRemConNowPlayingResponse @ 119 NONAME
	_ZTI25RRemConUidsChangedRequest @ 120 NONAME
	_ZTI26RRemConUidsChangedResponse @ 121 NONAME
	_ZTI27RAvrcpGetFolderItemsRequest @ 122 NONAME
	_ZTI28RAvrcpGetFolderItemsResponse @ 123 NONAME
	_ZTI28RRemConGetFolderItemsRequest @ 124 NONAME
	_ZTI29RRemConGetFolderItemsResponse @ 125 NONAME
	_ZTI29RRemConPlayerListOfAttributes @ 126 NONAME
	_ZTI30RRemConGetCapabilitiesResponse @ 127 NONAME
	_ZTI30RRemConSetBrowsedPlayerRequest @ 128 NONAME
	_ZTI31RAvrcpSetAddressedPlayerRequest @ 129 NONAME
	_ZTI31RRemConGetItemAttributesRequest @ 130 NONAME
	_ZTI32RAvrcpSetAddressedPlayerResponse @ 131 NONAME
	_ZTI32RRemConGetItemAttributesResponse @ 132 NONAME
	_ZTI34RRemConGetElementAttributesRequest @ 133 NONAME
	_ZTI34RRemConPlayerAttributeIdsAndValues @ 134 NONAME
	_ZTI35RRemConGetElementAttributesResponse @ 135 NONAME
	_ZTI36RRemConPlayerInformation8BitResponse @ 136 NONAME
	_ZTI37RRemConPlayerInformation32BitResponse @ 137 NONAME
	_ZTI37RRemConPlayerInformation64BitResponse @ 138 NONAME
	_ZTI39RRemConGetPlayerApplicationTextResponse @ 139 NONAME
	_ZTI41RAvrcpAddressedPlayerNotificationResponse @ 140 NONAME
	_ZTI45RRemConPlayerInformationGetPlayStatusResponse @ 141 NONAME
	_ZTV14RAvrcpIPCError @ 142 NONAME
	_ZTV20RRemConSearchRequest @ 143 NONAME
	_ZTV21RRemConSearchResponse @ 144 NONAME
	_ZTV22RRemConGetPathResponse @ 145 NONAME
	_ZTV24RRemConChangePathRequest @ 146 NONAME
	_ZTV24RRemConNowPlayingRequest @ 147 NONAME
	_ZTV25RRemConChangePathResponse @ 148 NONAME
	_ZTV25RRemConMediaErrorResponse @ 149 NONAME
	_ZTV25RRemConNowPlayingResponse @ 150 NONAME
	_ZTV25RRemConUidsChangedRequest @ 151 NONAME
	_ZTV26RRemConUidsChangedResponse @ 152 NONAME
	_ZTV27RAvrcpGetFolderItemsRequest @ 153 NONAME
	_ZTV28RAvrcpGetFolderItemsResponse @ 154 NONAME
	_ZTV28RRemConGetFolderItemsRequest @ 155 NONAME
	_ZTV29RRemConGetFolderItemsResponse @ 156 NONAME
	_ZTV29RRemConPlayerListOfAttributes @ 157 NONAME
	_ZTV30RRemConGetCapabilitiesResponse @ 158 NONAME
	_ZTV30RRemConSetBrowsedPlayerRequest @ 159 NONAME
	_ZTV31RAvrcpSetAddressedPlayerRequest @ 160 NONAME
	_ZTV31RRemConGetItemAttributesRequest @ 161 NONAME
	_ZTV32RAvrcpSetAddressedPlayerResponse @ 162 NONAME
	_ZTV32RRemConGetItemAttributesResponse @ 163 NONAME
	_ZTV34RRemConGetElementAttributesRequest @ 164 NONAME
	_ZTV34RRemConPlayerAttributeIdsAndValues @ 165 NONAME
	_ZTV35RRemConGetElementAttributesResponse @ 166 NONAME
	_ZTV36RRemConPlayerInformation8BitResponse @ 167 NONAME
	_ZTV37RRemConPlayerInformation32BitResponse @ 168 NONAME
	_ZTV37RRemConPlayerInformation64BitResponse @ 169 NONAME
	_ZTV39RRemConGetPlayerApplicationTextResponse @ 170 NONAME
	_ZTV41RAvrcpAddressedPlayerNotificationResponse @ 171 NONAME
	_ZTV45RRemConPlayerInformationGetPlayStatusResponse @ 172 NONAME
	_ZN36RAvrcpUidCounterNotificationResponse5ReadLERK6TDesC8 @ 173 NONAME
	_ZN36RAvrcpUidCounterNotificationResponse6WriteLER5TDes8 @ 174 NONAME
	_ZTI36RAvrcpUidCounterNotificationResponse @ 175 NONAME
	_ZTV36RAvrcpUidCounterNotificationResponse @ 176 NONAME
	_ZN50RRemConPlayerInformationGetPlayStatusUpdateRequest5ReadLERK6TDesC8 @ 177 NONAME
	_ZN50RRemConPlayerInformationGetPlayStatusUpdateRequest6WriteLER5TDes8 @ 178 NONAME
	_ZN51RRemConPlayerInformationGetPlayStatusUpdateResponse5ReadLERK6TDesC8 @ 179 NONAME
	_ZN51RRemConPlayerInformationGetPlayStatusUpdateResponse6WriteLER5TDes8 @ 180 NONAME
	_ZTI50RRemConPlayerInformationGetPlayStatusUpdateRequest @ 181 NONAME
	_ZTI51RRemConPlayerInformationGetPlayStatusUpdateResponse @ 182 NONAME
	_ZTV50RRemConPlayerInformationGetPlayStatusUpdateRequest @ 183 NONAME
	_ZTV51RRemConPlayerInformationGetPlayStatusUpdateResponse @ 184 NONAME

