EXPORTS
	?CancelRemoteSdpQuery@CBTEngDiscovery@@QAEXXZ @ 1 NONAME ; void CBTEngDiscovery::CancelRemoteSdpQuery(void)
	?CancelSearchRemoteDevice@CBTEngDiscovery@@QAEXXZ @ 2 NONAME ; void CBTEngDiscovery::CancelSearchRemoteDevice(void)
	?DeleteSdpRecord@CBTEngDiscovery@@QAEHK@Z @ 3 NONAME ; int CBTEngDiscovery::DeleteSdpRecord(unsigned long)
	?NewL@CBTEngDiscovery@@SAPAV1@PAVMBTEngSdpResultReceiver@@@Z @ 4 NONAME ; class CBTEngDiscovery * CBTEngDiscovery::NewL(class MBTEngSdpResultReceiver *)
	?NewLC@CBTEngDiscovery@@SAPAV1@PAVMBTEngSdpResultReceiver@@@Z @ 5 NONAME ; class CBTEngDiscovery * CBTEngDiscovery::NewLC(class MBTEngSdpResultReceiver *)
	?ParseNextSdpAttrValueType@CBTEngDiscovery@@SAHAAV?$RArray@VTBTEngSdpAttrValue@@@@HAAW4TSdpElementType@@@Z @ 6 NONAME ; int CBTEngDiscovery::ParseNextSdpAttrValueType(class RArray<class TBTEngSdpAttrValue> &, int, enum TSdpElementType &)
	?ParseRfcommChannel@CBTEngDiscovery@@SAHAAV?$RArray@VTBTEngSdpAttrValue@@@@AAH@Z @ 7 NONAME ; int CBTEngDiscovery::ParseRfcommChannel(class RArray<class TBTEngSdpAttrValue> &, int &)
	?RegisterSdpRecord@CBTEngDiscovery@@QAEHABVTUUID@@IAAK@Z @ 8 NONAME ; int CBTEngDiscovery::RegisterSdpRecord(class TUUID const &, unsigned int, unsigned long &)
	?RemoteProtocolChannelQuery@CBTEngDiscovery@@QAEHABVTBTDevAddr@@ABVTUUID@@@Z @ 9 NONAME ; int CBTEngDiscovery::RemoteProtocolChannelQuery(class TBTDevAddr const &, class TUUID const &)
	?RemoteSdpQuery@CBTEngDiscovery@@QAEHABVTBTDevAddr@@ABVTUUID@@@Z @ 10 NONAME ; int CBTEngDiscovery::RemoteSdpQuery(class TBTDevAddr const &, class TUUID const &)
	?RemoteSdpQuery@CBTEngDiscovery@@QAEHABVTBTDevAddr@@ABVTUUID@@G@Z @ 11 NONAME ; int CBTEngDiscovery::RemoteSdpQuery(class TBTDevAddr const &, class TUUID const &, unsigned short)
	?RemoteSdpQuery@CBTEngDiscovery@@QAEHABVTBTDevAddr@@KG@Z @ 12 NONAME ; int CBTEngDiscovery::RemoteSdpQuery(class TBTDevAddr const &, unsigned long, unsigned short)
	?SearchRemoteDevice@CBTEngDiscovery@@QAEHPAVCBTDevice@@I@Z @ 13 NONAME ; int CBTEngDiscovery::SearchRemoteDevice(class CBTDevice *, unsigned int)
	?SetNotifier@CBTEngDiscovery@@QAEXPAVMBTEngSdpResultReceiver@@@Z @ 14 NONAME ; void CBTEngDiscovery::SetNotifier(class MBTEngSdpResultReceiver *)
	?CloseRemoteSdpConnection@CBTEngDiscovery@@QAEXXZ @ 15 NONAME ; void CBTEngDiscovery::CloseRemoteSdpConnection(void)
	?GetEirServiceUUIDs@CBTEngDiscovery@@QAEHABVTBTDevAddr@@PAV?$TPckgBuf@VTNameRecord@@@@@Z @ 16 NONAME ; int CBTEngDiscovery::GetEirServiceUUIDs(class TBTDevAddr const &, class TPckgBuf<class TNameRecord> *)
	?DeviceSearchComplete@MBTEngSdpResultReceiver@@UAEXPAVCBTDevice@@PAV?$TPckgBuf@VTNameRecord@@@@H@Z @ 17 NONAME ; void MBTEngSdpResultReceiver::DeviceSearchComplete(class CBTDevice *, class TPckgBuf<class TNameRecord> *, int)
	?GetEirServiceUUIDsComplete@MBTEngSdpResultReceiver@@UAEXPAV?$TPckgBuf@VTNameRecord@@@@H@Z @ 18 NONAME ; void MBTEngSdpResultReceiver::GetEirServiceUUIDsComplete(class TPckgBuf<class TNameRecord> *, int)
	?SearchRemoteDevice@CBTEngDiscovery@@QAEHPAVCBTDevice@@PAV?$TPckgBuf@VTNameRecord@@@@I@Z @ 19 NONAME ; int CBTEngDiscovery::SearchRemoteDevice(class CBTDevice *, class TPckgBuf<class TNameRecord> *, unsigned int)
	?CancelGetEirServiceUUIDs@CBTEngDiscovery@@QAEXXZ @ 20 NONAME ; void CBTEngDiscovery::CancelGetEirServiceUUIDs(void)

