EXPORTS
	?MrcdumlbFolderListing@MRemConDatabaseUnawareMediaLibraryBrowse@@QAEXABV?$TArray@VTRemConItem@@@@I@Z @ 1 NONAME ; void MRemConDatabaseUnawareMediaLibraryBrowse::MrcdumlbFolderListing(class TArray<class TRemConItem> const &, unsigned int)
	?MrcdamlbMediaLibraryStateChange@MRemConDatabaseAwareMediaLibraryBrowse@@QAEXG@Z @ 2 NONAME ; void MRemConDatabaseAwareMediaLibraryBrowse::MrcdamlbMediaLibraryStateChange(unsigned short)
	?MrcdumlbSearchResult@MRemConDatabaseUnawareMediaLibraryBrowse@@QAEXIH@Z @ 3 NONAME ; void MRemConDatabaseUnawareMediaLibraryBrowse::MrcdumlbSearchResult(unsigned int, int)
	?MrcdumlbMediaElementItemResult@MRemConDatabaseUnawareMediaLibraryBrowse@@QAEXAB_KABVTDesC8@@EABV?$TArray@VTMediaElementAttribute@@@@H@Z @ 4 NONAME ; void MRemConDatabaseUnawareMediaLibraryBrowse::MrcdumlbMediaElementItemResult(unsigned long long const &, class TDesC8 const &, unsigned char, class TArray<class TMediaElementAttribute> const &, int)
	?MrcdumlbMediaLibraryStateChange@MRemConDatabaseUnawareMediaLibraryBrowse@@QAEXXZ @ 5 NONAME ; void MRemConDatabaseUnawareMediaLibraryBrowse::MrcdumlbMediaLibraryStateChange(void)
	?MrcdamlbMediaElementItemResult@MRemConDatabaseAwareMediaLibraryBrowse@@QAEXAB_KABVTDesC8@@EABV?$TArray@VTMediaElementAttribute@@@@H@Z @ 6 NONAME ; void MRemConDatabaseAwareMediaLibraryBrowse::MrcdamlbMediaElementItemResult(unsigned long long const &, class TDesC8 const &, unsigned char, class TArray<class TMediaElementAttribute> const &, int)
	?MrcdunpbFolderListing@MRemConDatabaseUnawareNowPlayingBrowse@@QAEXABV?$TArray@VTRemConItem@@@@I@Z @ 7 NONAME ; void MRemConDatabaseUnawareNowPlayingBrowse::MrcdunpbFolderListing(class TArray<class TRemConItem> const &, unsigned int)
	?MrcdumlbGetPathResult@MRemConDatabaseUnawareMediaLibraryBrowse@@QAEXIH@Z @ 8 NONAME ; void MRemConDatabaseUnawareMediaLibraryBrowse::MrcdumlbGetPathResult(unsigned int, int)
	?MrcdumlbFolderUpResult@MRemConDatabaseUnawareMediaLibraryBrowse@@QAEXIH@Z @ 9 NONAME ; void MRemConDatabaseUnawareMediaLibraryBrowse::MrcdumlbFolderUpResult(unsigned int, int)
	?MrcdamlbFolderDownResult@MRemConDatabaseAwareMediaLibraryBrowse@@QAEXIH@Z @ 10 NONAME ; void MRemConDatabaseAwareMediaLibraryBrowse::MrcdamlbFolderDownResult(unsigned int, int)
	?MrcdumlbFolderDownResult@MRemConDatabaseUnawareMediaLibraryBrowse@@QAEXIH@Z @ 11 NONAME ; void MRemConDatabaseUnawareMediaLibraryBrowse::MrcdumlbFolderDownResult(unsigned int, int)
	?MrcdamlbFolderItemResult@MRemConDatabaseAwareMediaLibraryBrowse@@QAEXAB_KABVTDesC8@@W4TFolderItemType@@EABV?$TArray@VTMediaElementAttribute@@@@H@Z @ 12 NONAME ; void MRemConDatabaseAwareMediaLibraryBrowse::MrcdamlbFolderItemResult(unsigned long long const &, class TDesC8 const &, enum TFolderItemType, unsigned char, class TArray<class TMediaElementAttribute> const &, int)
	?MrcdumlbFolderItemResult@MRemConDatabaseUnawareMediaLibraryBrowse@@QAEXAB_KABVTDesC8@@W4TFolderItemType@@EABV?$TArray@VTMediaElementAttribute@@@@H@Z @ 13 NONAME ; void MRemConDatabaseUnawareMediaLibraryBrowse::MrcdumlbFolderItemResult(unsigned long long const &, class TDesC8 const &, enum TFolderItemType, unsigned char, class TArray<class TMediaElementAttribute> const &, int)
	?MrcdamlbFolderListing@MRemConDatabaseAwareMediaLibraryBrowse@@QAEXABV?$TArray@VTRemConItem@@@@GI@Z @ 14 NONAME ; void MRemConDatabaseAwareMediaLibraryBrowse::MrcdamlbFolderListing(class TArray<class TRemConItem> const &, unsigned short, unsigned int)
	?MrcdamlbGetPathResult@MRemConDatabaseAwareMediaLibraryBrowse@@QAEXIGH@Z @ 15 NONAME ; void MRemConDatabaseAwareMediaLibraryBrowse::MrcdamlbGetPathResult(unsigned int, unsigned short, int)
	?MrcdamlbSearchResult@MRemConDatabaseAwareMediaLibraryBrowse@@QAEXIGH@Z @ 16 NONAME ; void MRemConDatabaseAwareMediaLibraryBrowse::MrcdamlbSearchResult(unsigned int, unsigned short, int)
	?MrcdanpbFolderListing@MRemConDatabaseAwareNowPlayingBrowse@@QAEXABV?$TArray@VTRemConItem@@@@GI@Z @ 17 NONAME ; void MRemConDatabaseAwareNowPlayingBrowse::MrcdanpbFolderListing(class TArray<class TRemConItem> const &, unsigned short, unsigned int)
	?MrcdamlbFolderUpResult@MRemConDatabaseAwareMediaLibraryBrowse@@QAEXIH@Z @ 18 NONAME ; void MRemConDatabaseAwareMediaLibraryBrowse::MrcdamlbFolderUpResult(unsigned int, int)
	?MrcdunpbMediaElementItemResult@MRemConDatabaseUnawareNowPlayingBrowse@@QAEXAB_KABVTDesC8@@EABV?$TArray@VTMediaElementAttribute@@@@H@Z @ 19 NONAME ; void MRemConDatabaseUnawareNowPlayingBrowse::MrcdunpbMediaElementItemResult(unsigned long long const &, class TDesC8 const &, unsigned char, class TArray<class TMediaElementAttribute> const &, int)
	?NewL@CRemConDatabaseUnawareMediaBrowseTarget@@SAPAV1@AAVCRemConInterfaceSelector@@AAVMRemConDatabaseUnawareMediaLibraryBrowseObserver@@AAVMRemConDatabaseUnawareNowPlayingBrowseObserver@@HAAPAVMRemConDatabaseUnawareMediaLibraryBrowse@@AAPAVMRemConDatabaseUnawareNowPlayingBrowse@@@Z @ 20 NONAME ; class CRemConDatabaseUnawareMediaBrowseTarget * CRemConDatabaseUnawareMediaBrowseTarget::NewL(class CRemConInterfaceSelector &, class MRemConDatabaseUnawareMediaLibraryBrowseObserver &, class MRemConDatabaseUnawareNowPlayingBrowseObserver &, int, class MRemConDatabaseUnawareMediaLibraryBrowse * &, class MRemConDatabaseUnawareNowPlayingBrowse * &)
	?NewL@CRemConDatabaseAwareMediaBrowseTarget@@SAPAV1@AAVCRemConInterfaceSelector@@AAVMRemConDatabaseAwareMediaLibraryBrowseObserver@@AAVMRemConDatabaseAwareNowPlayingBrowseObserver@@HAAPAVMRemConDatabaseAwareMediaLibraryBrowse@@AAPAVMRemConDatabaseAwareNowPlayingBrowse@@G@Z @ 21 NONAME ; class CRemConDatabaseAwareMediaBrowseTarget * CRemConDatabaseAwareMediaBrowseTarget::NewL(class CRemConInterfaceSelector &, class MRemConDatabaseAwareMediaLibraryBrowseObserver &, class MRemConDatabaseAwareNowPlayingBrowseObserver &, int, class MRemConDatabaseAwareMediaLibraryBrowse * &, class MRemConDatabaseAwareNowPlayingBrowse * &, unsigned short)
	?MrcdanpbMediaElementItemResult@MRemConDatabaseAwareNowPlayingBrowse@@QAEXAB_KABVTDesC8@@EABV?$TArray@VTMediaElementAttribute@@@@H@Z @ 22 NONAME ; void MRemConDatabaseAwareNowPlayingBrowse::MrcdanpbMediaElementItemResult(unsigned long long const &, class TDesC8 const &, unsigned char, class TArray<class TMediaElementAttribute> const &, int)

